target datalayout = "e-m:e-p270:32:32-p271:32:32-p272:64:64-i64:64-i128:128-f80:128-n8:16:32:64-S128"
target triple = "x86_64-pc-linux-gnu"

%struct.cl_fmap = type { ptr, ptr, ptr, i64, i64, i64, i64, i8, i8, i8, i64, i64, i64, i64, ptr, ptr, ptr, ptr, ptr, ptr, ptr, i8, [16 x i8], i8, [20 x i8], i8, [32 x i8], ptr, ptr }

; Function Attrs: nounwind uwtable
define internal i64 @fmap_which_page(ptr noundef %0, i64 noundef %1) #0 {
  %3 = alloca ptr, align 8
  %4 = alloca i64, align 8
  store ptr %0, ptr %3, align 8
  store i64 %1, ptr %4, align 8
  %5 = load i64, ptr %4, align 8
  %6 = load ptr, ptr %3, align 8
  %7 = getelementptr inbounds %struct.cl_fmap, ptr %6, i32 0, i32 5
  %8 = load i64, ptr %7, align 8
  %9 = udiv i64 %5, %8
  ret i64 %9
}

; Function Attrs: nounwind uwtable
define internal ptr @handle_need(ptr noundef %0, i64 noundef %1, i64 noundef %2, i32 noundef %3) #0 {
  %5 = alloca ptr, align 8
  %6 = alloca ptr, align 8
  %7 = alloca i64, align 8
  %8 = alloca i64, align 8
  %9 = alloca i32, align 4
  %10 = alloca i64, align 8
  %11 = alloca i64, align 8
  %12 = alloca i64, align 8
  %13 = alloca ptr, align 8
  store ptr %0, ptr %6, align 8
  store i64 %1, ptr %7, align 8
  store i64 %2, ptr %8, align 8
  store i32 %3, ptr %9, align 4
  %14 = load i64, ptr %8, align 8
  %15 = icmp ne i64 %14, 0
  br i1 %15, label %17, label %16

16:                                               ; preds = %4
  store ptr null, ptr %5, align 8
  br label %110

17:                                               ; preds = %4
  %18 = load ptr, ptr %6, align 8
  %19 = getelementptr inbounds %struct.cl_fmap, ptr %18, i32 0, i32 11
  %20 = load i64, ptr %19, align 8
  %21 = load i64, ptr %7, align 8
  %22 = add i64 %21, %20
  store i64 %22, ptr %7, align 8
  %23 = load ptr, ptr %6, align 8
  %24 = getelementptr inbounds %struct.cl_fmap, ptr %23, i32 0, i32 13
  %25 = load i64, ptr %24, align 8
  %26 = icmp ugt i64 %25, 0
  br i1 %26, label %27, label %72

27:                                               ; preds = %17
  %28 = load i64, ptr %8, align 8
  %29 = icmp ugt i64 %28, 0
  br i1 %29, label %30, label %72

30:                                               ; preds = %27
  %31 = load i64, ptr %8, align 8
  %32 = load ptr, ptr %6, align 8
  %33 = getelementptr inbounds %struct.cl_fmap, ptr %32, i32 0, i32 13
  %34 = load i64, ptr %33, align 8
  %35 = icmp ule i64 %31, %34
  br i1 %35, label %36, label %72

36:                                               ; preds = %30
  %37 = load i64, ptr %7, align 8
  %38 = load ptr, ptr %6, align 8
  %39 = getelementptr inbounds %struct.cl_fmap, ptr %38, i32 0, i32 11
  %40 = load i64, ptr %39, align 8
  %41 = icmp uge i64 %37, %40
  br i1 %41, label %42, label %72

42:                                               ; preds = %36
  %43 = load i64, ptr %7, align 8
  %44 = load i64, ptr %8, align 8
  %45 = add i64 %43, %44
  %46 = load ptr, ptr %6, align 8
  %47 = getelementptr inbounds %struct.cl_fmap, ptr %46, i32 0, i32 11
  %48 = load i64, ptr %47, align 8
  %49 = load ptr, ptr %6, align 8
  %50 = getelementptr inbounds %struct.cl_fmap, ptr %49, i32 0, i32 13
  %51 = load i64, ptr %50, align 8
  %52 = add i64 %48, %51
  %53 = icmp ule i64 %45, %52
  br i1 %53, label %54, label %72

54:                                               ; preds = %42
  %55 = load i64, ptr %7, align 8
  %56 = load i64, ptr %8, align 8
  %57 = add i64 %55, %56
  %58 = load ptr, ptr %6, align 8
  %59 = getelementptr inbounds %struct.cl_fmap, ptr %58, i32 0, i32 11
  %60 = load i64, ptr %59, align 8
  %61 = icmp ugt i64 %57, %60
  br i1 %61, label %62, label %72

62:                                               ; preds = %54
  %63 = load i64, ptr %7, align 8
  %64 = load ptr, ptr %6, align 8
  %65 = getelementptr inbounds %struct.cl_fmap, ptr %64, i32 0, i32 11
  %66 = load i64, ptr %65, align 8
  %67 = load ptr, ptr %6, align 8
  %68 = getelementptr inbounds %struct.cl_fmap, ptr %67, i32 0, i32 13
  %69 = load i64, ptr %68, align 8
  %70 = add i64 %66, %69
  %71 = icmp ult i64 %63, %70
  br i1 %71, label %73, label %72

72:                                               ; preds = %62, %54, %42, %36, %30, %27, %17
  store ptr null, ptr %5, align 8
  br label %110

73:                                               ; preds = %62
  %74 = load ptr, ptr %6, align 8
  call void @fmap_aging(ptr noundef %74)
  %75 = load ptr, ptr %6, align 8
  %76 = load i64, ptr %7, align 8
  %77 = call i64 @fmap_which_page(ptr noundef %75, i64 noundef %76)
  store i64 %77, ptr %10, align 8
  %78 = load ptr, ptr %6, align 8
  %79 = load i64, ptr %7, align 8
  %80 = load i64, ptr %8, align 8
  %81 = add i64 %79, %80
  %82 = sub i64 %81, 1
  %83 = call i64 @fmap_which_page(ptr noundef %78, i64 noundef %82)
  store i64 %83, ptr %11, align 8
  %84 = load i32, ptr %9, align 4
  %85 = icmp ne i32 %84, 0
  %86 = zext i1 %85 to i32
  %87 = sext i32 %86 to i64
  %88 = load i64, ptr %11, align 8
  %89 = load i64, ptr %10, align 8
  %90 = sub i64 %88, %89
  %91 = add i64 %90, 1
  %92 = mul i64 %87, %91
  store i64 %92, ptr %12, align 8
  %93 = load ptr, ptr %6, align 8
  %94 = load i64, ptr %10, align 8
  %95 = load i64, ptr %11, align 8
  %96 = load i64, ptr %10, align 8
  %97 = sub i64 %95, %96
  %98 = add i64 %97, 1
  %99 = load i64, ptr %12, align 8
  %100 = call i32 @fmap_readpage(ptr noundef %93, i64 noundef %94, i64 noundef %98, i64 noundef %99)
  %101 = icmp ne i32 %100, 0
  br i1 %101, label %102, label %103

102:                                              ; preds = %73
  store ptr null, ptr %5, align 8
  br label %110

103:                                              ; preds = %73
  %104 = load ptr, ptr %6, align 8
  %105 = getelementptr inbounds %struct.cl_fmap, ptr %104, i32 0, i32 2
  %106 = load ptr, ptr %105, align 8
  %107 = load i64, ptr %7, align 8
  %108 = getelementptr inbounds i8, ptr %106, i64 %107
  store ptr %108, ptr %13, align 8
  %109 = load ptr, ptr %13, align 8
  store ptr %109, ptr %5, align 8
  br label %110

110:                                              ; preds = %103, %102, %72, %16
  %111 = load ptr, ptr %5, align 8
  ret ptr %111
}