; Function Attrs: nounwind uwtable
define internal ptr @handle_need(ptr nocapture noundef %0, i64 noundef %1, i64 noundef %2, i32 noundef %3) #0 {
  %.not = icmp eq i64 %2, 0
  br i1 %.not, label %29, label %5

5:                                                ; preds = %4
  %6 = getelementptr inbounds i8, ptr %0, i64 72
  %7 = load i64, ptr %6, align 8
  %8 = add i64 %7, %1
  %9 = getelementptr inbounds i8, ptr %0, i64 88
  %10 = load i64, ptr %9, align 8
  %.not44 = icmp ult i64 %10, %2
  %.not45 = icmp ult i64 %8, %7
  %or.cond49 = select i1 %.not44, i1 true, i1 %.not45
  br i1 %or.cond49, label %29, label %11

11:                                               ; preds = %5
  %12 = add i64 %8, %2
  %13 = add i64 %10, %7
  %.not46 = icmp ule i64 %12, %13
  %14 = icmp ugt i64 %12, %7
  %or.cond50 = and i1 %.not46, %14
  %15 = icmp ult i64 %8, %13
  %or.cond51 = and i1 %15, %or.cond50
  br i1 %or.cond51, label %16, label %29

16:                                               ; preds = %11
  tail call fastcc void @fmap_aging(ptr noundef nonnull %0)
  %17 = getelementptr i8, ptr %0, i64 40
  %.val = load i64, ptr %17, align 8
  %18 = udiv i64 %8, %.val
  %19 = add i64 %12, -1
  %20 = udiv i64 %19, %.val
  %.not47 = icmp eq i32 %3, 0
  %21 = sub i64 %20, %18
  %22 = add i64 %21, 1
  %23 = select i1 %.not47, i64 0, i64 %22
  %24 = tail call fastcc i32 @fmap_readpage(ptr noundef nonnull %0, i64 noundef %18, i64 noundef %22, i64 noundef %23), !range !4
  %.not48 = icmp eq i32 %24, 0
  br i1 %.not48, label %25, label %29

25:                                               ; preds = %16
  %26 = getelementptr inbounds i8, ptr %0, i64 16
  %27 = load ptr, ptr %26, align 8
  %28 = getelementptr inbounds i8, ptr %27, i64 %8
  br label %29

29:                                               ; preds = %16, %5, %11, %4, %25
  %.0 = phi ptr [ %28, %25 ], [ null, %4 ], [ null, %11 ], [ null, %5 ], [ null, %16 ]
  ret ptr %.0
}